; Function Attrs: mustprogress nofree norecurse nosync nounwind willreturn memory(argmem: read) uwtable
define hidden noundef zeroext i1 @_ZN13LIR_Assembler18is_literal_addressEP11LIR_Address(ptr nocapture noundef nonnull readnone align 8 dereferenceable(96) %0, ptr nocapture noundef readonly %1) local_unnamed_addr #5 align 2 {
  %3 = getelementptr inbounds i8, ptr %1, i64 8
  %.sroa.0.0.copyload.i = load i64, ptr %3, align 8
  %4 = and i64 %.sroa.0.0.copyload.i, 7
  %5 = icmp eq i64 %4, 7
  br i1 %5, label %6, label %10

6:                                                ; preds = %2
  %7 = getelementptr inbounds i8, ptr %1, i64 16
  %.sroa.0.0.copyload.i2 = load i64, ptr %7, align 8
  %8 = and i64 %.sroa.0.0.copyload.i2, 7
  %9 = icmp eq i64 %8, 7
  br label %10

10:                                               ; preds = %6, %2
  %11 = phi i1 [ false, %2 ], [ %9, %6 ]
  ret i1 %11
}